target datalayout = "e-m:e-p270:32:32-p271:32:32-p272:64:64-i64:64-i128:128-f80:128-n8:16:32:64-S128"
target triple = "x86_64-pc-linux-gnu"

@stderr = external global ptr, align 8
@.str.1 = private unnamed_addr constant [32 x i8] c"Error in argument %d, char %d: \00", align 1
@.str.2 = private unnamed_addr constant [12 x i8] c": in flags\0A\00", align 1
@.str.3 = private unnamed_addr constant [21 x i8] c"option not found %c\0A\00", align 1
@.str.4 = private unnamed_addr constant [27 x i8] c"no argument for option %c\0A\00", align 1
@.str.5 = private unnamed_addr constant [9 x i8] c"unknown\0A\00", align 1

; Function Attrs: nounwind uwtable
define internal i32 @php_opt_error(i32 noundef %0, ptr noundef %1, i32 noundef %2, i32 noundef %3, i32 noundef %4, i32 noundef %5) #0 {
  %7 = alloca i32, align 4
  %8 = alloca ptr, align 8
  %9 = alloca i32, align 4
  %10 = alloca i32, align 4
  %11 = alloca i32, align 4
  %12 = alloca i32, align 4
  store i32 %0, ptr %7, align 4
  store ptr %1, ptr %8, align 8
  store i32 %2, ptr %9, align 4
  store i32 %3, ptr %10, align 4
  store i32 %4, ptr %11, align 4
  store i32 %5, ptr %12, align 4
  %13 = load i32, ptr %12, align 4
  %14 = icmp ne i32 %13, 0
  br i1 %14, label %15, label %55

15:                                               ; preds = %6
  %16 = load ptr, ptr @stderr, align 8
  %17 = load i32, ptr %9, align 4
  %18 = load i32, ptr %10, align 4
  %19 = add nsw i32 %18, 1
  %20 = call i32 (ptr, ptr, ...) @fprintf(ptr noundef %16, ptr noundef @.str.1, i32 noundef %17, i32 noundef %19) #6
  %21 = load i32, ptr %11, align 4
  switch i32 %21, label %51 [
    i32 1, label %22
    i32 2, label %25
    i32 3, label %38
  ]

22:                                               ; preds = %15
  %23 = load ptr, ptr @stderr, align 8
  %24 = call i32 (ptr, ptr, ...) @fprintf(ptr noundef %23, ptr noundef @.str.2) #6
  br label %54

25:                                               ; preds = %15
  %26 = load ptr, ptr @stderr, align 8
  %27 = load ptr, ptr %8, align 8
  %28 = load i32, ptr %9, align 4
  %29 = sext i32 %28 to i64
  %30 = getelementptr inbounds ptr, ptr %27, i64 %29
  %31 = load ptr, ptr %30, align 8
  %32 = load i32, ptr %10, align 4
  %33 = sext i32 %32 to i64
  %34 = getelementptr inbounds i8, ptr %31, i64 %33
  %35 = load i8, ptr %34, align 1
  %36 = sext i8 %35 to i32
  %37 = call i32 (ptr, ptr, ...) @fprintf(ptr noundef %26, ptr noundef @.str.3, i32 noundef %36) #6
  br label %54

38:                                               ; preds = %15
  %39 = load ptr, ptr @stderr, align 8
  %40 = load ptr, ptr %8, align 8
  %41 = load i32, ptr %9, align 4
  %42 = sext i32 %41 to i64
  %43 = getelementptr inbounds ptr, ptr %40, i64 %42
  %44 = load ptr, ptr %43, align 8
  %45 = load i32, ptr %10, align 4
  %46 = sext i32 %45 to i64
  %47 = getelementptr inbounds i8, ptr %44, i64 %46
  %48 = load i8, ptr %47, align 1
  %49 = sext i8 %48 to i32
  %50 = call i32 (ptr, ptr, ...) @fprintf(ptr noundef %39, ptr noundef @.str.4, i32 noundef %49) #6
  br label %54

51:                                               ; preds = %15
  %52 = load ptr, ptr @stderr, align 8
  %53 = call i32 (ptr, ptr, ...) @fprintf(ptr noundef %52, ptr noundef @.str.5) #6
  br label %54

54:                                               ; preds = %51, %38, %25, %22
  br label %55

55:                                               ; preds = %54, %6
  ret i32 -2
}