; Function Attrs: nofree nounwind uwtable
define internal fastcc void @php_opt_error(ptr nocapture noundef readonly %0, i32 noundef %1, i32 noundef %2, i32 noundef %3, i32 noundef %4) unnamed_addr #0 {
  %.not = icmp eq i32 %4, 0
  br i1 %.not, label %31, label %6

6:                                                ; preds = %5
  %7 = load ptr, ptr @stderr, align 8
  %8 = add nsw i32 %2, 1
  %9 = tail call i32 (ptr, ptr, ...) @fprintf(ptr noundef %7, ptr noundef nonnull @.str.1, i32 noundef %1, i32 noundef %8) #6
  %10 = load ptr, ptr @stderr, align 8
  switch i32 %3, label %default.unreachable [
    i32 1, label %11
    i32 2, label %13
    i32 3, label %22
  ]

11:                                               ; preds = %6
  %12 = tail call i64 @fwrite(ptr nonnull @.str.2, i64 11, i64 1, ptr %10) #7
  br label %31

13:                                               ; preds = %6
  %14 = sext i32 %1 to i64
  %15 = getelementptr inbounds ptr, ptr %0, i64 %14
  %16 = load ptr, ptr %15, align 8
  %17 = sext i32 %2 to i64
  %18 = getelementptr inbounds i8, ptr %16, i64 %17
  %19 = load i8, ptr %18, align 1
  %20 = sext i8 %19 to i32
  %21 = tail call i32 (ptr, ptr, ...) @fprintf(ptr noundef %10, ptr noundef nonnull @.str.3, i32 noundef %20) #6
  br label %31

22:                                               ; preds = %6
  %23 = sext i32 %1 to i64
  %24 = getelementptr inbounds ptr, ptr %0, i64 %23
  %25 = load ptr, ptr %24, align 8
  %26 = sext i32 %2 to i64
  %27 = getelementptr inbounds i8, ptr %25, i64 %26
  %28 = load i8, ptr %27, align 1
  %29 = sext i8 %28 to i32
  %30 = tail call i32 (ptr, ptr, ...) @fprintf(ptr noundef %10, ptr noundef nonnull @.str.4, i32 noundef %29) #6
  br label %31

default.unreachable:                              ; preds = %6
  unreachable

31:                                               ; preds = %11, %13, %22, %5
  ret void
}